; Function Attrs: mustprogress nounwind uwtable
define hidden noundef zeroext i16 @_ZN18VM_RedefineClasses33rewrite_cp_ref_in_annotation_dataEP5ArrayIhERiPKc(ptr nocapture noundef nonnull readonly align 8 dereferenceable(192) %0, ptr noundef %1, ptr nocapture noundef nonnull align 4 dereferenceable(4) %2, ptr noundef %3) local_unnamed_addr #0 align 2 {
  %5 = load i32, ptr %2, align 4
  %6 = getelementptr inbounds i8, ptr %1, i64 4
  %7 = sext i32 %5 to i64
  %8 = getelementptr inbounds i8, ptr %6, i64 %7
  %.0.i.i.i = load i16, ptr %8, align 1
  %9 = tail call noundef i16 @llvm.bswap.i16(i16 %.0.i.i.i)
  %10 = zext i16 %9 to i32
  %11 = getelementptr inbounds i8, ptr %0, i64 44
  %12 = load i32, ptr %11, align 4
  %13 = icmp eq i32 %12, 0
  %14 = icmp eq i16 %.0.i.i.i, 0
  %or.cond.i = or i1 %14, %13
  br i1 %or.cond.i, label %_ZN5Bytes11put_Java_u2EPht.exit, label %15

15:                                               ; preds = %4
  %16 = getelementptr inbounds i8, ptr %0, i64 48
  %17 = load ptr, ptr %16, align 8
  %18 = load i32, ptr %17, align 4
  %.not.i = icmp sgt i32 %18, %10
  br i1 %.not.i, label %19, label %_ZN5Bytes11put_Java_u2EPht.exit

19:                                               ; preds = %15
  %20 = getelementptr inbounds i8, ptr %17, i64 8
  %21 = load ptr, ptr %20, align 8
  %22 = zext i16 %9 to i64
  %23 = getelementptr inbounds i32, ptr %21, i64 %22
  %24 = load i32, ptr %23, align 4
  %25 = icmp eq i32 %24, -1
  %26 = trunc i32 %24 to i16
  %.not = icmp eq i16 %26, 0
  %or.cond = or i1 %25, %.not
  br i1 %or.cond, label %_ZN5Bytes11put_Java_u2EPht.exit, label %27

27:                                               ; preds = %19
  %28 = load volatile ptr, ptr getelementptr inbounds (i8, ptr @_ZN16LogTagSetMappingILN6LogTag4typeE125ELS1_16ELS1_4ELS1_0ELS1_0ELS1_0EE7_tagsetE, i64 56), align 8
  %.not14 = icmp eq ptr %28, null
  br i1 %.not14, label %30, label %29

29:                                               ; preds = %27
  tail call void (ptr, ...) @_ZN7LogImplILN6LogTag4typeE125ELS1_16ELS1_4ELS1_0ELS1_0ELS1_0EE5writeILN8LogLevel4typeE2EEEvPKcz(ptr noundef nonnull @.str.85, ptr noundef %3, i32 noundef %10)
  br label %30

30:                                               ; preds = %27, %29
  %31 = tail call noundef i16 @llvm.bswap.i16(i16 %26)
  %32 = ptrtoint ptr %8 to i64
  %33 = and i64 %32, 1
  %34 = icmp eq i64 %33, 0
  br i1 %34, label %35, label %36

35:                                               ; preds = %30
  store i16 %31, ptr %8, align 2
  br label %_ZN5Bytes11put_Java_u2EPht.exit

36:                                               ; preds = %30
  store i16 %31, ptr %8, align 1
  br label %_ZN5Bytes11put_Java_u2EPht.exit

_ZN5Bytes11put_Java_u2EPht.exit:                  ; preds = %19, %15, %4, %36, %35
  %.0 = phi i16 [ %26, %35 ], [ %26, %36 ], [ %9, %4 ], [ %9, %15 ], [ %9, %19 ]
  %37 = load i32, ptr %2, align 4
  %38 = add nsw i32 %37, 2
  store i32 %38, ptr %2, align 4
  ret i16 %.0
}